target datalayout = "e-m:e-p270:32:32-p271:32:32-p272:64:64-i64:64-i128:128-f80:128-n8:16:32:64-S128"
target triple = "x86_64-pc-linux-gnu"

%struct.ml_dsa_key_st = type { ptr, ptr, ptr, ptr, [32 x i8], [64 x i8], [32 x i8], ptr, ptr, ptr, i32, i32, %struct.vector_st, %struct.vector_st, %struct.vector_st, %struct.vector_st }
%struct.vector_st = type { ptr, i64 }

; Function Attrs: nounwind uwtable
define ptr @ossl_ml_dsa_key_get_priv(ptr noundef %0) #0 {
  %2 = alloca ptr, align 8
  store ptr %0, ptr %2, align 8, !tbaa !3
  %3 = load ptr, ptr %2, align 8, !tbaa !3
  %4 = getelementptr inbounds nuw %struct.ml_dsa_key_st, ptr %3, i32 0, i32 8
  %5 = load ptr, ptr %4, align 8, !tbaa !25
  ret ptr %5
}

; Function Attrs: nounwind uwtable
define ptr @ossl_ml_dsa_key_get_pub(ptr noundef %0) #0 {
  %2 = alloca ptr, align 8
  store ptr %0, ptr %2, align 8, !tbaa !3
  %3 = load ptr, ptr %2, align 8, !tbaa !3
  %4 = getelementptr inbounds nuw %struct.ml_dsa_key_st, ptr %3, i32 0, i32 7
  %5 = load ptr, ptr %4, align 8, !tbaa !24
  ret ptr %5
}

; Function Attrs: nounwind uwtable
define i32 @ossl_ml_dsa_key_has(ptr noundef %0, i32 noundef %1) #0 {
  %3 = alloca i32, align 4
  %4 = alloca ptr, align 8
  %5 = alloca i32, align 4
  store ptr %0, ptr %4, align 8, !tbaa !3
  store i32 %1, ptr %5, align 4, !tbaa !21
  %6 = load i32, ptr %5, align 4, !tbaa !21
  %7 = and i32 %6, 3
  %8 = icmp ne i32 %7, 0
  br i1 %8, label %9, label %24

9:                                                ; preds = %2
  %10 = load ptr, ptr %4, align 8, !tbaa !3
  %11 = call ptr @ossl_ml_dsa_key_get_pub(ptr noundef %10)
  %12 = icmp eq ptr %11, null
  br i1 %12, label %13, label %14

13:                                               ; preds = %9
  store i32 0, ptr %3, align 4
  br label %25

14:                                               ; preds = %9
  %15 = load i32, ptr %5, align 4, !tbaa !21
  %16 = and i32 %15, 1
  %17 = icmp ne i32 %16, 0
  br i1 %17, label %18, label %23

18:                                               ; preds = %14
  %19 = load ptr, ptr %4, align 8, !tbaa !3
  %20 = call ptr @ossl_ml_dsa_key_get_priv(ptr noundef %19)
  %21 = icmp eq ptr %20, null
  br i1 %21, label %22, label %23

22:                                               ; preds = %18
  store i32 0, ptr %3, align 4
  br label %25

23:                                               ; preds = %18, %14
  store i32 1, ptr %3, align 4
  br label %25

24:                                               ; preds = %2
  store i32 0, ptr %3, align 4
  br label %25

25:                                               ; preds = %24, %23, %22, %13
  %26 = load i32, ptr %3, align 4
  ret i32 %26
}